; Function Attrs: nounwind sspstrong uwtable
define internal noundef i64 @ossl_ts_token_info_initialize(i64 noundef returned %0, i64 noundef %1) #0 {
  %3 = alloca i64, align 8
  %4 = alloca ptr, align 8
  call void @llvm.lifetime.start.p0(i64 8, ptr nonnull %4) #7
  %5 = inttoptr i64 %0 to ptr
  %6 = getelementptr inbounds nuw i8, ptr %5, i64 32
  %7 = load ptr, ptr %6, align 8, !tbaa !15
  store ptr %7, ptr %4, align 8, !tbaa !48
  %8 = tail call i64 @ossl_to_der_if_possible(i64 noundef %1) #7
  store i64 %8, ptr %3, align 8, !tbaa !6
  %9 = call ptr @ossl_obj2bio(ptr noundef nonnull %3) #7
  %10 = call ptr @d2i_TS_TST_INFO_bio(ptr noundef %9, ptr noundef nonnull %4) #7
  store ptr %10, ptr %4, align 8, !tbaa !48
  %11 = call i32 @BIO_free(ptr noundef %9) #7
  %12 = load ptr, ptr %4, align 8, !tbaa !48
  %.not = icmp eq ptr %12, null
  br i1 %.not, label %13, label %15

13:                                               ; preds = %2
  store ptr null, ptr %6, align 8, !tbaa !15
  %14 = load i64, ptr @eTimestampError, align 8, !tbaa !6
  call void (i64, ptr, ...) @ossl_raise(i64 noundef %14, ptr noundef nonnull @.str.65) #8
  unreachable

15:                                               ; preds = %2
  store ptr %12, ptr %6, align 8, !tbaa !15
  call void @llvm.lifetime.end.p0(i64 8, ptr nonnull %4) #7
  ret i64 %0
}